; ModuleID = '12/1049.c'
source_filename = "12/1049.c"
target datalayout = "e-m:e-p270:32:32-p271:32:32-p272:64:64-i64:64-f80:128-n8:16:32:64-S128"
target triple = "x86_64-pc-linux-gnu"

@.str = private unnamed_addr constant [3 x i8] c"%d\00", align 1
@.str.1 = private unnamed_addr constant [4 x i8] c"%d\0A\00", align 1

; Function Attrs: noinline nounwind uwtable
define dso_local i32 @main(i32 %0, i8** %1) #0 {
  %3 = alloca i32, align 4
  %4 = alloca i32, align 4
  %5 = alloca i8**, align 8
  %6 = alloca i32, align 4
  %7 = alloca i32, align 4
  %8 = alloca i32, align 4
  %9 = alloca i32, align 4
  %10 = alloca i32, align 4
  %11 = alloca [16 x i32], align 16
  store i32 0, i32* %3, align 4
  store i32 %0, i32* %4, align 4
  store i8** %1, i8*** %5, align 8
  store i32 0, i32* %10, align 4
  store i32 0, i32* %7, align 4
  br label %12

12:                                               ; preds = %64, %2
  %13 = load i32, i32* %7, align 4
  %14 = icmp slt i32 %13, 16
  br i1 %14, label %15, label %67

15:                                               ; preds = %12
  %16 = call i32 (i8*, ...) @__isoc99_scanf(i8* getelementptr inbounds ([3 x i8], [3 x i8]* @.str, i64 0, i64 0), i32* %6)
  %17 = load i32, i32* %6, align 4
  %18 = icmp ne i32 %17, -1
  br i1 %18, label %19, label %62

19:                                               ; preds = %15
  %20 = load i32, i32* %6, align 4
  %21 = load i32, i32* %7, align 4
  %22 = sext i32 %21 to i64
  %23 = getelementptr inbounds [16 x i32], [16 x i32]* %11, i64 0, i64 %22
  store i32 %20, i32* %23, align 4
  %24 = load i32, i32* %6, align 4
  %25 = icmp eq i32 %24, 0
  br i1 %25, label %26, label %61

26:                                               ; preds = %19
  store i32 0, i32* %9, align 4
  br label %27

27:                                               ; preds = %55, %26
  %28 = load i32, i32* %9, align 4
  %29 = load i32, i32* %7, align 4
  %30 = icmp slt i32 %28, %29
  br i1 %30, label %31, label %58

31:                                               ; preds = %27
  store i32 0, i32* %8, align 4
  br label %32

32:                                               ; preds = %51, %31
  %33 = load i32, i32* %8, align 4
  %34 = load i32, i32* %7, align 4
  %35 = icmp slt i32 %33, %34
  br i1 %35, label %36, label %54

36:                                               ; preds = %32
  %37 = load i32, i32* %9, align 4
  %38 = sext i32 %37 to i64
  %39 = getelementptr inbounds [16 x i32], [16 x i32]* %11, i64 0, i64 %38
  %40 = load i32, i32* %39, align 4
  %41 = load i32, i32* %8, align 4
  %42 = sext i32 %41 to i64
  %43 = getelementptr inbounds [16 x i32], [16 x i32]* %11, i64 0, i64 %42
  %44 = load i32, i32* %43, align 4
  %45 = mul nsw i32 2, %44
  %46 = icmp eq i32 %40, %45
  br i1 %46, label %47, label %50

47:                                               ; preds = %36
  %48 = load i32, i32* %10, align 4
  %49 = add nsw i32 %48, 1
  store i32 %49, i32* %10, align 4
  br label %50

50:                                               ; preds = %47, %36
  br label %51

51:                                               ; preds = %50
  %52 = load i32, i32* %8, align 4
  %53 = add nsw i32 %52, 1
  store i32 %53, i32* %8, align 4
  br label %32

54:                                               ; preds = %32
  br label %55

55:                                               ; preds = %54
  %56 = load i32, i32* %9, align 4
  %57 = add nsw i32 %56, 1
  store i32 %57, i32* %9, align 4
  br label %27

58:                                               ; preds = %27
  %59 = load i32, i32* %10, align 4
  %60 = call i32 (i8*, ...) @printf(i8* getelementptr inbounds ([4 x i8], [4 x i8]* @.str.1, i64 0, i64 0), i32 %59)
  store i32 -1, i32* %7, align 4
  store i32 0, i32* %10, align 4
  br label %61

61:                                               ; preds = %58, %19
  br label %63

62:                                               ; preds = %15
  br label %67

63:                                               ; preds = %61
  br label %64

64:                                               ; preds = %63
  %65 = load i32, i32* %7, align 4
  %66 = add nsw i32 %65, 1
  store i32 %66, i32* %7, align 4
  br label %12

67:                                               ; preds = %62, %12
  ret i32 0
}

declare dso_local i32 @__isoc99_scanf(i8*, ...) #1

declare dso_local i32 @printf(i8*, ...) #1


!llvm.module.flags = !{!0}
!llvm.ident = !{!1}

!0 = !{i32 1, !"wchar_size", i32 4}
!1 = !{!"clang version 10.0.0-4ubuntu1 "}
